; Function Attrs: mustprogress uwtable
define hidden void @_ZN4cvc58internal6theory7strings16RegExpEnumeratorC2ERKS3_(ptr noundef nonnull align 8 dereferenceable(72) %this, ptr noundef nonnull align 8 dereferenceable(72) %enumerator) unnamed_addr #3 align 2 personality ptr @__gxx_personality_v0 {
entry:
  %agg.tmp = alloca %"class.cvc5::internal::TypeNode", align 8
  tail call void @llvm.experimental.noalias.scope.decl(metadata !4)
  %d_type.i = getelementptr inbounds i8, ptr %enumerator, i64 8
  %0 = load ptr, ptr %d_type.i, align 8, !noalias !4
  store ptr %0, ptr %agg.tmp, align 8, !alias.scope !4
  %bf.load.i.i.i = load i64, ptr %0, align 8, !noalias !4
  %bf.lshr.i.i.i = lshr i64 %bf.load.i.i.i, 40
  %1 = trunc i64 %bf.lshr.i.i.i to i32
  %bf.cast.i.i.i = and i32 %1, 1048575
  %cmp.i.i.i = icmp ult i32 %bf.cast.i.i.i, 1048574
  br i1 %cmp.i.i.i, label %if.then.i.i.i, label %if.else.i.i.i

if.then.i.i.i:                                    ; preds = %entry
  %bf.value.i.i.i = add i64 %bf.load.i.i.i, 1099511627776
  %bf.shl.i.i.i = and i64 %bf.value.i.i.i, 1152920405095219200
  %bf.clear7.i.i.i = and i64 %bf.load.i.i.i, -1152920405095219201
  %bf.set.i.i.i = or disjoint i64 %bf.shl.i.i.i, %bf.clear7.i.i.i
  store i64 %bf.set.i.i.i, ptr %0, align 8, !noalias !4
  br label %_ZNK4cvc58internal6theory23TypeEnumeratorInterface7getTypeEv.exit

if.else.i.i.i:                                    ; preds = %entry
  %cmp12.i.i.i = icmp eq i32 %bf.cast.i.i.i, 1048574
  br i1 %cmp12.i.i.i, label %if.then13.i.i.i, label %_ZNK4cvc58internal6theory23TypeEnumeratorInterface7getTypeEv.exit

if.then13.i.i.i:                                  ; preds = %if.else.i.i.i
  %bf.set23.i.i.i = or i64 %bf.load.i.i.i, 1152920405095219200
  store i64 %bf.set23.i.i.i, ptr %0, align 8, !noalias !4
  tail call void @_ZN4cvc58internal4expr9NodeValue20markRefCountMaxedOutEv(ptr noundef nonnull align 8 dereferenceable(16) %0), !noalias !4
  br label %_ZNK4cvc58internal6theory23TypeEnumeratorInterface7getTypeEv.exit

_ZNK4cvc58internal6theory23TypeEnumeratorInterface7getTypeEv.exit: ; preds = %if.then.i.i.i, %if.else.i.i.i, %if.then13.i.i.i
  invoke void @_ZN4cvc58internal6theory18TypeEnumeratorBaseINS1_7strings16RegExpEnumeratorEEC2ENS0_8TypeNodeE(ptr noundef nonnull align 8 dereferenceable(16) %this, ptr noundef nonnull %agg.tmp)
          to label %invoke.cont unwind label %lpad

invoke.cont:                                      ; preds = %_ZNK4cvc58internal6theory23TypeEnumeratorInterface7getTypeEv.exit
  %2 = load ptr, ptr %agg.tmp, align 8
  %bf.load.i.i = load i64, ptr %2, align 8
  %3 = and i64 %bf.load.i.i, 1152920405095219200
  %cmp.not.i.i = icmp eq i64 %3, 1152920405095219200
  br i1 %cmp.not.i.i, label %_ZN4cvc58internal8TypeNodeD2Ev.exit, label %if.then.i.i

if.then.i.i:                                      ; preds = %invoke.cont
  %bf.value.i.i = add i64 %bf.load.i.i, 1152920405095219200
  %bf.shl.i.i = and i64 %bf.value.i.i, 1152920405095219200
  %bf.clear7.i.i = and i64 %bf.load.i.i, -1152920405095219201
  %bf.set.i.i = or disjoint i64 %bf.shl.i.i, %bf.clear7.i.i
  store i64 %bf.set.i.i, ptr %2, align 8
  %cmp12.i.i = icmp eq i64 %bf.shl.i.i, 0
  br i1 %cmp12.i.i, label %if.then13.i.i, label %_ZN4cvc58internal8TypeNodeD2Ev.exit

if.then13.i.i:                                    ; preds = %if.then.i.i
  invoke void @_ZN4cvc58internal4expr9NodeValue15markForDeletionEv(ptr noundef nonnull align 8 dereferenceable(16) %2)
          to label %_ZN4cvc58internal8TypeNodeD2Ev.exit unwind label %terminate.lpad.i

terminate.lpad.i:                                 ; preds = %if.then13.i.i
  %4 = landingpad { ptr, i32 }
          catch ptr null
  %5 = extractvalue { ptr, i32 } %4, 0
  call void @__clang_call_terminate(ptr %5) #12
  unreachable

_ZN4cvc58internal8TypeNodeD2Ev.exit:              ; preds = %invoke.cont, %if.then.i.i, %if.then13.i.i
  store ptr getelementptr inbounds ({ [8 x ptr] }, ptr @_ZTVN4cvc58internal6theory7strings16RegExpEnumeratorE, i64 0, i32 0, i64 2), ptr %this, align 8
  %d_senum = getelementptr inbounds i8, ptr %this, i64 16
  %d_senum2 = getelementptr inbounds i8, ptr %enumerator, i64 16
  invoke void @_ZN4cvc58internal6theory7strings16StringEnumeratorC1ERKS3_(ptr noundef nonnull align 8 dereferenceable(56) %d_senum, ptr noundef nonnull align 8 dereferenceable(56) %d_senum2)
          to label %invoke.cont4 unwind label %lpad3

invoke.cont4:                                     ; preds = %_ZN4cvc58internal8TypeNodeD2Ev.exit
  ret void

lpad:                                             ; preds = %_ZNK4cvc58internal6theory23TypeEnumeratorInterface7getTypeEv.exit
  %6 = landingpad { ptr, i32 }
          cleanup
  call void @_ZN4cvc58internal8TypeNodeD2Ev(ptr noundef nonnull align 8 dereferenceable(8) %agg.tmp) #13
  br label %eh.resume

lpad3:                                            ; preds = %_ZN4cvc58internal8TypeNodeD2Ev.exit
  %7 = landingpad { ptr, i32 }
          cleanup
  call void @_ZN4cvc58internal6theory18TypeEnumeratorBaseINS1_7strings16RegExpEnumeratorEED2Ev(ptr noundef nonnull align 8 dereferenceable(16) %this) #13
  br label %eh.resume

eh.resume:                                        ; preds = %lpad3, %lpad
  %.pn = phi { ptr, i32 } [ %7, %lpad3 ], [ %6, %lpad ]
  resume { ptr, i32 } %.pn
}